target datalayout = "e-m:e-p270:32:32-p271:32:32-p272:64:64-i64:64-i128:128-f80:128-n8:16:32:64-S128"
target triple = "x86_64-pc-linux-gnu"

%struct._zend_executor_globals = type { %struct._zval_struct, %struct._zval_struct, [32 x ptr], ptr, ptr, %struct._zend_array, %struct._zend_array, ptr, i32, i32, ptr, ptr, ptr, ptr, ptr, ptr, i64, ptr, ptr, i32, i32, i64, i32, i32, i32, i8, i8, %struct.zend_atomic_bool_s, %struct.zend_atomic_bool_s, ptr, i64, ptr, ptr, %struct._zend_array, %struct._zend_array, i32, i8, %struct._zval_struct, %struct._zval_struct, %struct._zend_stack, %struct._zend_stack, %struct._zend_stack, ptr, i32, i32, i64, ptr, ptr, ptr, %struct._zend_objects_store, ptr, ptr, ptr, [3 x %struct._zend_op], ptr, i8, i8, i64, i32, i32, ptr, [16 x %struct._HashTableIterator], ptr, %union._zend_function, %struct._zend_op, %struct._zend_array, i64, %struct.zend_get_gc_buffer, ptr, ptr, ptr, i64, i8, i32, ptr, ptr, i64, %struct._zend_call_stack, i64, i64, [6 x ptr] }
%struct.zend_atomic_bool_s = type { i8 }
%struct._zval_struct = type { %union._zend_value, %union.anon, %union.anon.2 }
%union._zend_value = type { i64 }
%union.anon = type { i32 }
%union.anon.2 = type { i32 }
%struct._zend_stack = type { i32, i32, i32, ptr }
%struct._zend_objects_store = type { ptr, i32, i32, i32 }
%struct._HashTableIterator = type { ptr, i32, i32 }
%union._zend_function = type { %struct._zend_op_array }
%struct._zend_op_array = type { i8, [3 x i8], i32, ptr, ptr, ptr, i32, i32, ptr, ptr, ptr, ptr, i32, i32, i32, i32, ptr, ptr, ptr, ptr, ptr, i32, i32, ptr, ptr, ptr, i32, i32, i32, i32, ptr, ptr, [6 x ptr] }
%struct._zend_op = type { ptr, %union._znode_op, %union._znode_op, %union._znode_op, i32, i32, i8, i8, i8, i8 }
%union._znode_op = type { i32 }
%struct._zend_array = type { %struct._zend_refcounted_h, %union.anon.4, i32, %union.anon.6, i32, i32, i32, i32, i64, ptr }
%struct._zend_refcounted_h = type { i32, %union.anon.3 }
%union.anon.3 = type { i32 }
%union.anon.4 = type { i32 }
%union.anon.6 = type { ptr }
%struct.zend_get_gc_buffer = type { ptr, ptr, ptr }
%struct._zend_call_stack = type { ptr, i64 }
%struct._zend_ini_entry = type { ptr, ptr, ptr, ptr, ptr, ptr, ptr, ptr, i32, i8, i8, i8 }
%struct._zend_ini_entry_def = type { ptr, ptr, ptr, ptr, ptr, ptr, ptr, i32, i16, i8 }

@registered_zend_ini_directives = internal global ptr null, align 8
@executor_globals = external global %struct._zend_executor_globals, align 8
@zend_string_init_interned = external global ptr, align 8
@zend_new_interned_string = external global ptr, align 8
@zend_unregister_ini_entries_ex.ini_directives = internal global ptr null, align 8

; Function Attrs: nounwind uwtable
define void @zend_unregister_ini_entries_ex(i32 noundef %0, i32 noundef %1) #0 {
  %3 = alloca i32, align 4
  %4 = alloca i32, align 4
  store i32 %0, ptr %3, align 4
  store i32 %1, ptr %4, align 4
  %5 = load i32, ptr %4, align 4
  %6 = icmp eq i32 %5, 2
  br i1 %6, label %7, label %9

7:                                                ; preds = %2
  %8 = load ptr, ptr getelementptr inbounds (%struct._zend_executor_globals, ptr @executor_globals, i32 0, i32 46), align 8
  store ptr %8, ptr @zend_unregister_ini_entries_ex.ini_directives, align 8
  br label %11

9:                                                ; preds = %2
  %10 = load ptr, ptr @registered_zend_ini_directives, align 8
  store ptr %10, ptr @zend_unregister_ini_entries_ex.ini_directives, align 8
  br label %11

11:                                               ; preds = %9, %7
  %12 = load ptr, ptr @zend_unregister_ini_entries_ex.ini_directives, align 8
  call void @zend_hash_apply_with_argument(ptr noundef %12, ptr noundef @zend_remove_ini_entries, ptr noundef %3)
  ret void
}

; Function Attrs: nounwind uwtable
define i32 @zend_register_ini_entries_ex(ptr noundef %0, i32 noundef %1, i32 noundef %2) #0 {
  %4 = alloca ptr, align 8
  %5 = alloca ptr, align 8
  %6 = alloca i32, align 4
  %7 = alloca i32, align 4
  %8 = alloca ptr, align 8
  %9 = alloca ptr, align 8
  %10 = alloca i8, align 1
  %11 = alloca ptr, align 8
  %12 = alloca ptr, align 8
  %13 = alloca ptr, align 8
  %14 = alloca ptr, align 8
  %15 = alloca %struct._zval_struct, align 8
  %16 = alloca ptr, align 8
  %17 = alloca i32, align 4
  %18 = alloca ptr, align 8
  %19 = alloca i32, align 4
  %20 = alloca i32, align 4
  %21 = alloca ptr, align 8
  %22 = alloca ptr, align 8
  %23 = alloca ptr, align 8
  store ptr %0, ptr %18, align 8
  store i32 %1, ptr %19, align 4
  store i32 %2, ptr %20, align 4
  %24 = load ptr, ptr @registered_zend_ini_directives, align 8
  store ptr %24, ptr %23, align 8
  br label %25

25:                                               ; preds = %239, %3
  %26 = load ptr, ptr %18, align 8
  %27 = getelementptr inbounds %struct._zend_ini_entry_def, ptr %26, i32 0, i32 0
  %28 = load ptr, ptr %27, align 8
  %29 = icmp ne ptr %28, null
  br i1 %29, label %30, label %242

30:                                               ; preds = %25
  %31 = call noalias ptr @__zend_malloc(i64 noundef 72) #15
  store ptr %31, ptr %21, align 8
  %32 = load ptr, ptr @zend_string_init_interned, align 8
  %33 = load ptr, ptr %18, align 8
  %34 = getelementptr inbounds %struct._zend_ini_entry_def, ptr %33, i32 0, i32 0
  %35 = load ptr, ptr %34, align 8
  %36 = load ptr, ptr %18, align 8
  %37 = getelementptr inbounds %struct._zend_ini_entry_def, ptr %36, i32 0, i32 8
  %38 = load i16, ptr %37, align 4
  %39 = zext i16 %38 to i64
  %40 = call ptr %32(ptr noundef %35, i64 noundef %39, i1 noundef zeroext true)
  %41 = load ptr, ptr %21, align 8
  %42 = getelementptr inbounds %struct._zend_ini_entry, ptr %41, i32 0, i32 0
  store ptr %40, ptr %42, align 8
  %43 = load ptr, ptr %18, align 8
  %44 = getelementptr inbounds %struct._zend_ini_entry_def, ptr %43, i32 0, i32 1
  %45 = load ptr, ptr %44, align 8
  %46 = load ptr, ptr %21, align 8
  %47 = getelementptr inbounds %struct._zend_ini_entry, ptr %46, i32 0, i32 1
  store ptr %45, ptr %47, align 8
  %48 = load ptr, ptr %18, align 8
  %49 = getelementptr inbounds %struct._zend_ini_entry_def, ptr %48, i32 0, i32 2
  %50 = load ptr, ptr %49, align 8
  %51 = load ptr, ptr %21, align 8
  %52 = getelementptr inbounds %struct._zend_ini_entry, ptr %51, i32 0, i32 2
  store ptr %50, ptr %52, align 8
  %53 = load ptr, ptr %18, align 8
  %54 = getelementptr inbounds %struct._zend_ini_entry_def, ptr %53, i32 0, i32 3
  %55 = load ptr, ptr %54, align 8
  %56 = load ptr, ptr %21, align 8
  %57 = getelementptr inbounds %struct._zend_ini_entry, ptr %56, i32 0, i32 3
  store ptr %55, ptr %57, align 8
  %58 = load ptr, ptr %18, align 8
  %59 = getelementptr inbounds %struct._zend_ini_entry_def, ptr %58, i32 0, i32 4
  %60 = load ptr, ptr %59, align 8
  %61 = load ptr, ptr %21, align 8
  %62 = getelementptr inbounds %struct._zend_ini_entry, ptr %61, i32 0, i32 4
  store ptr %60, ptr %62, align 8
  %63 = load ptr, ptr %21, align 8
  %64 = getelementptr inbounds %struct._zend_ini_entry, ptr %63, i32 0, i32 5
  store ptr null, ptr %64, align 8
  %65 = load ptr, ptr %21, align 8
  %66 = getelementptr inbounds %struct._zend_ini_entry, ptr %65, i32 0, i32 6
  store ptr null, ptr %66, align 8
  %67 = load ptr, ptr %18, align 8
  %68 = getelementptr inbounds %struct._zend_ini_entry_def, ptr %67, i32 0, i32 6
  %69 = load ptr, ptr %68, align 8
  %70 = load ptr, ptr %21, align 8
  %71 = getelementptr inbounds %struct._zend_ini_entry, ptr %70, i32 0, i32 7
  store ptr %69, ptr %71, align 8
  %72 = load ptr, ptr %18, align 8
  %73 = getelementptr inbounds %struct._zend_ini_entry_def, ptr %72, i32 0, i32 9
  %74 = load i8, ptr %73, align 2
  %75 = load ptr, ptr %21, align 8
  %76 = getelementptr inbounds %struct._zend_ini_entry, ptr %75, i32 0, i32 9
  store i8 %74, ptr %76, align 4
  %77 = load ptr, ptr %21, align 8
  %78 = getelementptr inbounds %struct._zend_ini_entry, ptr %77, i32 0, i32 10
  store i8 0, ptr %78, align 1
  %79 = load ptr, ptr %21, align 8
  %80 = getelementptr inbounds %struct._zend_ini_entry, ptr %79, i32 0, i32 11
  store i8 0, ptr %80, align 2
  %81 = load i32, ptr %19, align 4
  %82 = load ptr, ptr %21, align 8
  %83 = getelementptr inbounds %struct._zend_ini_entry, ptr %82, i32 0, i32 8
  store i32 %81, ptr %83, align 8
  %84 = load ptr, ptr %23, align 8
  %85 = load ptr, ptr %21, align 8
  %86 = getelementptr inbounds %struct._zend_ini_entry, ptr %85, i32 0, i32 0
  %87 = load ptr, ptr %86, align 8
  %88 = load ptr, ptr %21, align 8
  store ptr %84, ptr %12, align 8
  store ptr %87, ptr %13, align 8
  store ptr %88, ptr %14, align 8
  %89 = load ptr, ptr %14, align 8
  store ptr %89, ptr %15, align 8
  %90 = getelementptr inbounds %struct._zval_struct, ptr %15, i32 0, i32 1
  store i32 13, ptr %90, align 8
  %91 = load ptr, ptr %12, align 8
  %92 = load ptr, ptr %13, align 8
  %93 = call ptr @zend_hash_add(ptr noundef %91, ptr noundef %92, ptr noundef %15) #13
  store ptr %93, ptr %16, align 8
  %94 = load ptr, ptr %16, align 8
  %95 = icmp ne ptr %94, null
  br i1 %95, label %96, label %102

96:                                               ; preds = %30
  %97 = load ptr, ptr %16, align 8
  %98 = load ptr, ptr %97, align 8
  %99 = icmp ne ptr %98, null
  call void @llvm.assume(i1 %99)
  %100 = load ptr, ptr %16, align 8
  %101 = load ptr, ptr %100, align 8
  store ptr %101, ptr %11, align 8
  br label %103

102:                                              ; preds = %30
  store ptr null, ptr %11, align 8
  br label %103

103:                                              ; preds = %102, %96
  %104 = load ptr, ptr %11, align 8
  %105 = icmp eq ptr %104, null
  br i1 %105, label %106, label %144

106:                                              ; preds = %103
  %107 = load ptr, ptr %21, align 8
  %108 = getelementptr inbounds %struct._zend_ini_entry, ptr %107, i32 0, i32 0
  %109 = load ptr, ptr %108, align 8
  %110 = icmp ne ptr %109, null
  br i1 %110, label %111, label %141

111:                                              ; preds = %106
  %112 = load ptr, ptr %21, align 8
  %113 = getelementptr inbounds %struct._zend_ini_entry, ptr %112, i32 0, i32 0
  %114 = load ptr, ptr %113, align 8
  store ptr %114, ptr %9, align 8
  store i8 1, ptr %10, align 1
  %115 = load ptr, ptr %9, align 8
  %116 = getelementptr inbounds %struct._zend_refcounted_h, ptr %115, i32 0, i32 1
  %117 = load i32, ptr %116, align 4
  store i32 %117, ptr %6, align 4
  %118 = load i32, ptr %6, align 4
  %119 = and i32 %118, 1008
  %120 = and i32 %119, 64
  %121 = icmp ne i32 %120, 0
  br i1 %121, label %140, label %122

122:                                              ; preds = %111
  %123 = load ptr, ptr %9, align 8
  store ptr %123, ptr %5, align 8
  %124 = load ptr, ptr %5, align 8
  %125 = load i32, ptr %124, align 4
  %126 = icmp ugt i32 %125, 0
  call void @llvm.assume(i1 %126)
  %127 = load ptr, ptr %5, align 8
  %128 = load i32, ptr %127, align 4
  %129 = add i32 %128, -1
  store i32 %129, ptr %127, align 4
  %130 = icmp eq i32 %129, 0
  br i1 %130, label %131, label %139

131:                                              ; preds = %122
  %132 = load i8, ptr %10, align 1
  %133 = trunc i8 %132 to i1
  br i1 %133, label %134, label %136

134:                                              ; preds = %131
  %135 = load ptr, ptr %9, align 8
  call void @free(ptr noundef %135) #13
  br label %138

136:                                              ; preds = %131
  %137 = load ptr, ptr %9, align 8
  call void @_efree(ptr noundef %137) #13
  br label %138

138:                                              ; preds = %136, %134
  br label %139

139:                                              ; preds = %138, %122
  br label %140

140:                                              ; preds = %139, %111
  br label %141

141:                                              ; preds = %140, %106
  %142 = load i32, ptr %19, align 4
  %143 = load i32, ptr %20, align 4
  call void @zend_unregister_ini_entries_ex(i32 noundef %142, i32 noundef %143)
  store i32 -1, ptr %17, align 4
  br label %243

144:                                              ; preds = %103
  %145 = load ptr, ptr %21, align 8
  %146 = getelementptr inbounds %struct._zend_ini_entry, ptr %145, i32 0, i32 0
  %147 = load ptr, ptr %146, align 8
  %148 = call ptr @zend_get_configuration_directive(ptr noundef %147)
  store ptr %148, ptr %22, align 8
  %149 = icmp ne ptr %148, null
  br i1 %149, label %150, label %196

150:                                              ; preds = %144
  %151 = load ptr, ptr %21, align 8
  %152 = getelementptr inbounds %struct._zend_ini_entry, ptr %151, i32 0, i32 1
  %153 = load ptr, ptr %152, align 8
  %154 = icmp ne ptr %153, null
  br i1 %154, label %155, label %174

155:                                              ; preds = %150
  %156 = load ptr, ptr %21, align 8
  %157 = getelementptr inbounds %struct._zend_ini_entry, ptr %156, i32 0, i32 1
  %158 = load ptr, ptr %157, align 8
  %159 = load ptr, ptr %21, align 8
  %160 = load ptr, ptr %22, align 8
  %161 = getelementptr inbounds %struct._zval_struct, ptr %160, i32 0, i32 0
  %162 = load ptr, ptr %161, align 8
  %163 = load ptr, ptr %21, align 8
  %164 = getelementptr inbounds %struct._zend_ini_entry, ptr %163, i32 0, i32 2
  %165 = load ptr, ptr %164, align 8
  %166 = load ptr, ptr %21, align 8
  %167 = getelementptr inbounds %struct._zend_ini_entry, ptr %166, i32 0, i32 3
  %168 = load ptr, ptr %167, align 8
  %169 = load ptr, ptr %21, align 8
  %170 = getelementptr inbounds %struct._zend_ini_entry, ptr %169, i32 0, i32 4
  %171 = load ptr, ptr %170, align 8
  %172 = call i32 %158(ptr noundef %159, ptr noundef %162, ptr noundef %165, ptr noundef %168, ptr noundef %171, i32 noundef 1)
  %173 = icmp eq i32 %172, 0
  br i1 %173, label %174, label %196

174:                                              ; preds = %155, %150
  %175 = load ptr, ptr @zend_new_interned_string, align 8
  %176 = load ptr, ptr %22, align 8
  %177 = getelementptr inbounds %struct._zval_struct, ptr %176, i32 0, i32 0
  %178 = load ptr, ptr %177, align 8
  store ptr %178, ptr %8, align 8
  %179 = load ptr, ptr %8, align 8
  %180 = getelementptr inbounds %struct._zend_refcounted_h, ptr %179, i32 0, i32 1
  %181 = load i32, ptr %180, align 4
  store i32 %181, ptr %7, align 4
  %182 = load i32, ptr %7, align 4
  %183 = and i32 %182, 1008
  %184 = and i32 %183, 64
  %185 = icmp ne i32 %184, 0
  br i1 %185, label %191, label %186

186:                                              ; preds = %174
  %187 = load ptr, ptr %8, align 8
  store ptr %187, ptr %4, align 8
  %188 = load ptr, ptr %4, align 8
  %189 = load i32, ptr %188, align 4
  %190 = add i32 %189, 1
  store i32 %190, ptr %188, align 4
  br label %191

191:                                              ; preds = %186, %174
  %192 = load ptr, ptr %8, align 8
  %193 = call ptr %175(ptr noundef %192)
  %194 = load ptr, ptr %21, align 8
  %195 = getelementptr inbounds %struct._zend_ini_entry, ptr %194, i32 0, i32 5
  store ptr %193, ptr %195, align 8
  br label %239

196:                                              ; preds = %155, %144
  %197 = load ptr, ptr %18, align 8
  %198 = getelementptr inbounds %struct._zend_ini_entry_def, ptr %197, i32 0, i32 5
  %199 = load ptr, ptr %198, align 8
  %200 = icmp ne ptr %199, null
  br i1 %200, label %201, label %211

201:                                              ; preds = %196
  %202 = load ptr, ptr @zend_string_init_interned, align 8
  %203 = load ptr, ptr %18, align 8
  %204 = getelementptr inbounds %struct._zend_ini_entry_def, ptr %203, i32 0, i32 5
  %205 = load ptr, ptr %204, align 8
  %206 = load ptr, ptr %18, align 8
  %207 = getelementptr inbounds %struct._zend_ini_entry_def, ptr %206, i32 0, i32 7
  %208 = load i32, ptr %207, align 8
  %209 = zext i32 %208 to i64
  %210 = call ptr %202(ptr noundef %205, i64 noundef %209, i1 noundef zeroext true)
  br label %212

211:                                              ; preds = %196
  br label %212

212:                                              ; preds = %211, %201
  %213 = phi ptr [ %210, %201 ], [ null, %211 ]
  %214 = load ptr, ptr %21, align 8
  %215 = getelementptr inbounds %struct._zend_ini_entry, ptr %214, i32 0, i32 5
  store ptr %213, ptr %215, align 8
  %216 = load ptr, ptr %21, align 8
  %217 = getelementptr inbounds %struct._zend_ini_entry, ptr %216, i32 0, i32 1
  %218 = load ptr, ptr %217, align 8
  %219 = icmp ne ptr %218, null
  br i1 %219, label %220, label %238

220:                                              ; preds = %212
  %221 = load ptr, ptr %21, align 8
  %222 = getelementptr inbounds %struct._zend_ini_entry, ptr %221, i32 0, i32 1
  %223 = load ptr, ptr %222, align 8
  %224 = load ptr, ptr %21, align 8
  %225 = load ptr, ptr %21, align 8
  %226 = getelementptr inbounds %struct._zend_ini_entry, ptr %225, i32 0, i32 5
  %227 = load ptr, ptr %226, align 8
  %228 = load ptr, ptr %21, align 8
  %229 = getelementptr inbounds %struct._zend_ini_entry, ptr %228, i32 0, i32 2
  %230 = load ptr, ptr %229, align 8
  %231 = load ptr, ptr %21, align 8
  %232 = getelementptr inbounds %struct._zend_ini_entry, ptr %231, i32 0, i32 3
  %233 = load ptr, ptr %232, align 8
  %234 = load ptr, ptr %21, align 8
  %235 = getelementptr inbounds %struct._zend_ini_entry, ptr %234, i32 0, i32 4
  %236 = load ptr, ptr %235, align 8
  %237 = call i32 %223(ptr noundef %224, ptr noundef %227, ptr noundef %230, ptr noundef %233, ptr noundef %236, i32 noundef 1)
  br label %238

238:                                              ; preds = %220, %212
  br label %239

239:                                              ; preds = %238, %191
  %240 = load ptr, ptr %18, align 8
  %241 = getelementptr inbounds %struct._zend_ini_entry_def, ptr %240, i32 1
  store ptr %241, ptr %18, align 8
  br label %25

242:                                              ; preds = %25
  store i32 0, ptr %17, align 4
  br label %243

243:                                              ; preds = %242, %141
  %244 = load i32, ptr %17, align 4
  ret i32 %244
}