; Function Attrs: nounwind uwtable
define noundef i32 @zend_register_ini_entries_ex(ptr nocapture noundef readonly %0, i32 noundef %1, i32 noundef %2) local_unnamed_addr #0 {
  %4 = alloca i32, align 4
  %5 = alloca %struct._zval_struct, align 8
  %6 = load ptr, ptr @registered_zend_ini_directives, align 8
  %7 = load ptr, ptr %0, align 8
  %.not87 = icmp eq ptr %7, null
  br i1 %.not87, label %.loopexit, label %.lr.ph

.lr.ph:                                           ; preds = %3
  %8 = getelementptr inbounds i8, ptr %5, i64 8
  br label %9

9:                                                ; preds = %.lr.ph, %89
  %.07288 = phi ptr [ %0, %.lr.ph ], [ %90, %89 ]
  %10 = call noalias dereferenceable_or_null(72) ptr @__zend_malloc(i64 noundef 72) #19
  %11 = load ptr, ptr @zend_string_init_interned, align 8
  %12 = load ptr, ptr %.07288, align 8
  %13 = getelementptr inbounds i8, ptr %.07288, i64 60
  %14 = load i16, ptr %13, align 4
  %15 = zext i16 %14 to i64
  %16 = call ptr %11(ptr noundef %12, i64 noundef %15, i1 noundef zeroext true) #20
  store ptr %16, ptr %10, align 8
  %17 = getelementptr inbounds i8, ptr %.07288, i64 8
  %18 = getelementptr inbounds i8, ptr %10, i64 8
  %19 = getelementptr inbounds i8, ptr %10, i64 16
  %20 = load <2 x ptr>, ptr %17, align 8
  store <2 x ptr> %20, ptr %18, align 8
  %21 = getelementptr inbounds i8, ptr %.07288, i64 24
  %22 = getelementptr inbounds i8, ptr %10, i64 24
  %23 = getelementptr inbounds i8, ptr %10, i64 32
  %24 = load <2 x ptr>, ptr %21, align 8
  store <2 x ptr> %24, ptr %22, align 8
  %25 = getelementptr inbounds i8, ptr %10, i64 40
  %26 = getelementptr inbounds i8, ptr %.07288, i64 48
  call void @llvm.memset.p0.i64(ptr noundef nonnull align 8 dereferenceable(16) %25, i8 0, i64 16, i1 false)
  %27 = load ptr, ptr %26, align 8
  %28 = getelementptr inbounds i8, ptr %10, i64 56
  store ptr %27, ptr %28, align 8
  %29 = getelementptr inbounds i8, ptr %.07288, i64 62
  %30 = load i8, ptr %29, align 2
  %31 = getelementptr inbounds i8, ptr %10, i64 68
  store i8 %30, ptr %31, align 4
  %32 = getelementptr inbounds i8, ptr %10, i64 69
  store i8 0, ptr %32, align 1
  %33 = getelementptr inbounds i8, ptr %10, i64 70
  store i8 0, ptr %33, align 2
  %34 = getelementptr inbounds i8, ptr %10, i64 64
  store i32 %1, ptr %34, align 8
  store ptr %10, ptr %5, align 8
  store i32 13, ptr %8, align 8
  %35 = call ptr @zend_hash_add(ptr noundef %6, ptr noundef %16, ptr noundef nonnull %5) #20
  %.not79 = icmp eq ptr %35, null
  %36 = load ptr, ptr %10, align 8
  br i1 %.not79, label %37, label %50

37:                                               ; preds = %9
  %.not85 = icmp eq ptr %36, null
  br i1 %.not85, label %48, label %38

38:                                               ; preds = %37
  %39 = getelementptr inbounds i8, ptr %36, i64 4
  %40 = load i32, ptr %39, align 4
  %41 = and i32 %40, 64
  %.not86 = icmp eq i32 %41, 0
  br i1 %.not86, label %42, label %48

42:                                               ; preds = %38
  %43 = load i32, ptr %36, align 4
  %44 = icmp ne i32 %43, 0
  call void @llvm.assume(i1 %44)
  %45 = add i32 %43, -1
  store i32 %45, ptr %36, align 4
  %46 = icmp eq i32 %45, 0
  br i1 %46, label %47, label %48

47:                                               ; preds = %42
  call void @free(ptr noundef nonnull %36) #20
  br label %48

48:                                               ; preds = %38, %47, %42, %37
  call void @llvm.lifetime.start.p0(i64 4, ptr nonnull %4)
  store i32 %1, ptr %4, align 4
  %49 = icmp eq i32 %2, 2
  %.val.i = load ptr, ptr getelementptr inbounds (%struct._zend_executor_globals, ptr @executor_globals, i64 0, i32 46), align 8
  %registered_zend_ini_directives.val.i = load ptr, ptr @registered_zend_ini_directives, align 8
  %storemerge.i = select i1 %49, ptr %.val.i, ptr %registered_zend_ini_directives.val.i
  store ptr %storemerge.i, ptr @zend_unregister_ini_entries_ex.ini_directives, align 8
  call void @zend_hash_apply_with_argument(ptr noundef %storemerge.i, ptr noundef nonnull @zend_remove_ini_entries, ptr noundef nonnull %4) #20
  call void @llvm.lifetime.end.p0(i64 4, ptr nonnull %4)
  br label %.loopexit

50:                                               ; preds = %9
  %51 = call ptr @zend_get_configuration_directive(ptr noundef %36) #20
  %.not80 = icmp eq ptr %51, null
  br i1 %.not80, label %72, label %52

52:                                               ; preds = %50
  %53 = load ptr, ptr %18, align 8
  %.not81 = icmp eq ptr %53, null
  br i1 %.not81, label %61, label %54

54:                                               ; preds = %52
  %55 = load ptr, ptr %51, align 8
  %56 = load ptr, ptr %19, align 8
  %57 = load ptr, ptr %22, align 8
  %58 = load ptr, ptr %23, align 8
  %59 = call i32 %53(ptr noundef nonnull %10, ptr noundef %55, ptr noundef %56, ptr noundef %57, ptr noundef %58, i32 noundef 1) #20
  %60 = icmp eq i32 %59, 0
  br i1 %60, label %61, label %72

61:                                               ; preds = %54, %52
  %62 = load ptr, ptr @zend_new_interned_string, align 8
  %63 = load ptr, ptr %51, align 8
  %64 = getelementptr inbounds i8, ptr %63, i64 4
  %65 = load i32, ptr %64, align 4
  %66 = and i32 %65, 64
  %.not84 = icmp eq i32 %66, 0
  br i1 %.not84, label %67, label %70

67:                                               ; preds = %61
  %68 = load i32, ptr %63, align 4
  %69 = add i32 %68, 1
  store i32 %69, ptr %63, align 4
  br label %70

70:                                               ; preds = %67, %61
  %71 = call ptr %62(ptr noundef nonnull %63) #20
  store ptr %71, ptr %25, align 8
  br label %89

72:                                               ; preds = %54, %50
  %73 = getelementptr inbounds i8, ptr %.07288, i64 40
  %74 = load ptr, ptr %73, align 8
  %.not82 = icmp eq ptr %74, null
  br i1 %.not82, label %81, label %75

75:                                               ; preds = %72
  %76 = load ptr, ptr @zend_string_init_interned, align 8
  %77 = getelementptr inbounds i8, ptr %.07288, i64 56
  %78 = load i32, ptr %77, align 8
  %79 = zext i32 %78 to i64
  %80 = call ptr %76(ptr noundef nonnull %74, i64 noundef %79, i1 noundef zeroext true) #20
  br label %81

81:                                               ; preds = %72, %75
  %82 = phi ptr [ %80, %75 ], [ null, %72 ]
  store ptr %82, ptr %25, align 8
  %83 = load ptr, ptr %18, align 8
  %.not83 = icmp eq ptr %83, null
  br i1 %.not83, label %89, label %84

84:                                               ; preds = %81
  %85 = load ptr, ptr %19, align 8
  %86 = load ptr, ptr %22, align 8
  %87 = load ptr, ptr %23, align 8
  %88 = call i32 %83(ptr noundef nonnull %10, ptr noundef %82, ptr noundef %85, ptr noundef %86, ptr noundef %87, i32 noundef 1) #20
  br label %89

89:                                               ; preds = %81, %84, %70
  %90 = getelementptr inbounds i8, ptr %.07288, i64 64
  %91 = load ptr, ptr %90, align 8
  %.not = icmp eq ptr %91, null
  br i1 %.not, label %.loopexit, label %9

.loopexit:                                        ; preds = %89, %3, %48
  %.071 = phi i32 [ -1, %48 ], [ 0, %3 ], [ 0, %89 ]
  ret i32 %.071
}